target datalayout = "e-m:e-p270:32:32-p271:32:32-p272:64:64-i64:64-i128:128-f80:128-n8:16:32:64-S128"
target triple = "x86_64-pc-linux-gnu"

; Function Attrs: mustprogress uwtable
define hidden void @_ZN4ncnn18resize_bilinear_c2EPKhiiPhii(ptr noundef %0, i32 noundef %1, i32 noundef %2, ptr noundef %3, i32 noundef %4, i32 noundef %5) #0 {
  %7 = alloca ptr, align 8
  %8 = alloca i32, align 4
  %9 = alloca i32, align 4
  %10 = alloca ptr, align 8
  %11 = alloca i32, align 4
  %12 = alloca i32, align 4
  store ptr %0, ptr %7, align 8, !tbaa !4
  store i32 %1, ptr %8, align 4, !tbaa !9
  store i32 %2, ptr %9, align 4, !tbaa !9
  store ptr %3, ptr %10, align 8, !tbaa !4
  store i32 %4, ptr %11, align 4, !tbaa !9
  store i32 %5, ptr %12, align 4, !tbaa !9
  %13 = load ptr, ptr %7, align 8, !tbaa !4
  %14 = load i32, ptr %8, align 4, !tbaa !9
  %15 = load i32, ptr %9, align 4, !tbaa !9
  %16 = load i32, ptr %8, align 4, !tbaa !9
  %17 = mul nsw i32 %16, 2
  %18 = load ptr, ptr %10, align 8, !tbaa !4
  %19 = load i32, ptr %11, align 4, !tbaa !9
  %20 = load i32, ptr %12, align 4, !tbaa !9
  %21 = load i32, ptr %11, align 4, !tbaa !9
  %22 = mul nsw i32 %21, 2
  call void @_ZN4ncnn18resize_bilinear_c2EPKhiiiPhiii(ptr noundef %13, i32 noundef %14, i32 noundef %15, i32 noundef %17, ptr noundef %18, i32 noundef %19, i32 noundef %20, i32 noundef %22)
  ret void
}

; Function Attrs: mustprogress uwtable
define hidden void @_ZN4ncnn18resize_bilinear_c1EPKhiiPhii(ptr noundef %0, i32 noundef %1, i32 noundef %2, ptr noundef %3, i32 noundef %4, i32 noundef %5) #0 {
  %7 = alloca ptr, align 8
  %8 = alloca i32, align 4
  %9 = alloca i32, align 4
  %10 = alloca ptr, align 8
  %11 = alloca i32, align 4
  %12 = alloca i32, align 4
  store ptr %0, ptr %7, align 8, !tbaa !4
  store i32 %1, ptr %8, align 4, !tbaa !9
  store i32 %2, ptr %9, align 4, !tbaa !9
  store ptr %3, ptr %10, align 8, !tbaa !4
  store i32 %4, ptr %11, align 4, !tbaa !9
  store i32 %5, ptr %12, align 4, !tbaa !9
  %13 = load ptr, ptr %7, align 8, !tbaa !4
  %14 = load i32, ptr %8, align 4, !tbaa !9
  %15 = load i32, ptr %9, align 4, !tbaa !9
  %16 = load i32, ptr %8, align 4, !tbaa !9
  %17 = load ptr, ptr %10, align 8, !tbaa !4
  %18 = load i32, ptr %11, align 4, !tbaa !9
  %19 = load i32, ptr %12, align 4, !tbaa !9
  %20 = load i32, ptr %11, align 4, !tbaa !9
  call void @_ZN4ncnn18resize_bilinear_c1EPKhiiiPhiii(ptr noundef %13, i32 noundef %14, i32 noundef %15, i32 noundef %16, ptr noundef %17, i32 noundef %18, i32 noundef %19, i32 noundef %20)
  ret void
}

; Function Attrs: mustprogress uwtable
define hidden void @_ZN4ncnn24resize_bilinear_yuv420spEPKhiiPhii(ptr noundef %0, i32 noundef %1, i32 noundef %2, ptr noundef %3, i32 noundef %4, i32 noundef %5) #0 {
  %7 = alloca ptr, align 8
  %8 = alloca i32, align 4
  %9 = alloca i32, align 4
  %10 = alloca ptr, align 8
  %11 = alloca i32, align 4
  %12 = alloca i32, align 4
  %13 = alloca ptr, align 8
  %14 = alloca ptr, align 8
  %15 = alloca ptr, align 8
  %16 = alloca ptr, align 8
  store ptr %0, ptr %7, align 8, !tbaa !4
  store i32 %1, ptr %8, align 4, !tbaa !9
  store i32 %2, ptr %9, align 4, !tbaa !9
  store ptr %3, ptr %10, align 8, !tbaa !4
  store i32 %4, ptr %11, align 4, !tbaa !9
  store i32 %5, ptr %12, align 4, !tbaa !9
  call void @llvm.lifetime.start.p0(i64 8, ptr %13) #15
  %17 = load ptr, ptr %7, align 8, !tbaa !4
  store ptr %17, ptr %13, align 8, !tbaa !4
  call void @llvm.lifetime.start.p0(i64 8, ptr %14) #15
  %18 = load ptr, ptr %10, align 8, !tbaa !4
  store ptr %18, ptr %14, align 8, !tbaa !4
  %19 = load ptr, ptr %13, align 8, !tbaa !4
  %20 = load i32, ptr %8, align 4, !tbaa !9
  %21 = load i32, ptr %9, align 4, !tbaa !9
  %22 = load ptr, ptr %14, align 8, !tbaa !4
  %23 = load i32, ptr %11, align 4, !tbaa !9
  %24 = load i32, ptr %12, align 4, !tbaa !9
  call void @_ZN4ncnn18resize_bilinear_c1EPKhiiPhii(ptr noundef %19, i32 noundef %20, i32 noundef %21, ptr noundef %22, i32 noundef %23, i32 noundef %24)
  call void @llvm.lifetime.start.p0(i64 8, ptr %15) #15
  %25 = load ptr, ptr %7, align 8, !tbaa !4
  %26 = load i32, ptr %8, align 4, !tbaa !9
  %27 = load i32, ptr %9, align 4, !tbaa !9
  %28 = mul nsw i32 %26, %27
  %29 = sext i32 %28 to i64
  %30 = getelementptr inbounds i8, ptr %25, i64 %29
  store ptr %30, ptr %15, align 8, !tbaa !4
  call void @llvm.lifetime.start.p0(i64 8, ptr %16) #15
  %31 = load ptr, ptr %10, align 8, !tbaa !4
  %32 = load i32, ptr %11, align 4, !tbaa !9
  %33 = load i32, ptr %12, align 4, !tbaa !9
  %34 = mul nsw i32 %32, %33
  %35 = sext i32 %34 to i64
  %36 = getelementptr inbounds i8, ptr %31, i64 %35
  store ptr %36, ptr %16, align 8, !tbaa !4
  %37 = load ptr, ptr %15, align 8, !tbaa !4
  %38 = load i32, ptr %8, align 4, !tbaa !9
  %39 = sdiv i32 %38, 2
  %40 = load i32, ptr %9, align 4, !tbaa !9
  %41 = sdiv i32 %40, 2
  %42 = load ptr, ptr %16, align 8, !tbaa !4
  %43 = load i32, ptr %11, align 4, !tbaa !9
  %44 = sdiv i32 %43, 2
  %45 = load i32, ptr %12, align 4, !tbaa !9
  %46 = sdiv i32 %45, 2
  call void @_ZN4ncnn18resize_bilinear_c2EPKhiiPhii(ptr noundef %37, i32 noundef %39, i32 noundef %41, ptr noundef %42, i32 noundef %44, i32 noundef %46)
  call void @llvm.lifetime.end.p0(i64 8, ptr %16) #15
  call void @llvm.lifetime.end.p0(i64 8, ptr %15) #15
  call void @llvm.lifetime.end.p0(i64 8, ptr %14) #15
  call void @llvm.lifetime.end.p0(i64 8, ptr %13) #15
  ret void
}