; Function Attrs: mustprogress uwtable
define hidden void @_ZN4ncnn24resize_bilinear_yuv420spEPKhiiPhii(ptr noundef readonly captures(none) %0, i32 noundef %1, i32 noundef %2, ptr noundef writeonly captures(none) %3, i32 noundef %4, i32 noundef %5) local_unnamed_addr #0 {
  tail call void @_ZN4ncnn18resize_bilinear_c1EPKhiiiPhiii(ptr noundef readonly %0, i32 noundef %1, i32 noundef %2, i32 noundef %1, ptr noundef %3, i32 noundef %4, i32 noundef %5, i32 noundef %4)
  %7 = mul nsw i32 %2, %1
  %8 = sext i32 %7 to i64
  %9 = getelementptr inbounds i8, ptr %0, i64 %8
  %10 = mul nsw i32 %5, %4
  %11 = sext i32 %10 to i64
  %12 = getelementptr inbounds i8, ptr %3, i64 %11
  %13 = sdiv i32 %1, 2
  %14 = sdiv i32 %2, 2
  %15 = sdiv i32 %4, 2
  %16 = sdiv i32 %5, 2
  %17 = shl nsw i32 %13, 1
  %18 = shl nsw i32 %15, 1
  tail call void @_ZN4ncnn18resize_bilinear_c2EPKhiiiPhiii(ptr noundef readonly %9, i32 noundef %13, i32 noundef %14, i32 noundef %17, ptr noundef %12, i32 noundef %15, i32 noundef %16, i32 noundef %18)
  ret void
}